target datalayout = "e-m:e-p270:32:32-p271:32:32-p272:64:64-i64:64-i128:128-f80:128-n8:16:32:64-S128"
target triple = "x86_64-unknown-linux-gnu"

%"class.google::protobuf::compiler::csharp::ReflectionClassGenerator" = type { %"class.google::protobuf::compiler::csharp::SourceGeneratorBase", ptr, %"class.std::__cxx11::basic_string", %"class.std::__cxx11::basic_string", %"class.std::__cxx11::basic_string" }
%"class.google::protobuf::compiler::csharp::SourceGeneratorBase" = type { ptr, ptr }
%"class.std::__cxx11::basic_string" = type { %"struct.std::__cxx11::basic_string<char>::_Alloc_hider", i64, %union.anon }
%"struct.std::__cxx11::basic_string<char>::_Alloc_hider" = type { ptr }
%union.anon = type { i64, [8 x i8] }

; Function Attrs: mustprogress uwtable
define hidden void @_ZN6google8protobuf8compiler6csharp12GenerateFileEPKNS0_14FileDescriptorEPNS0_2io7PrinterEPKNS2_7OptionsE(ptr noundef %file, ptr noundef %printer, ptr noundef %options) #4 personality ptr @__gxx_personality_v0 {
entry:
  %file.addr = alloca ptr, align 8
  %printer.addr = alloca ptr, align 8
  %options.addr = alloca ptr, align 8
  %reflectionClassGenerator = alloca %"class.google::protobuf::compiler::csharp::ReflectionClassGenerator", align 8
  %exn.slot = alloca ptr, align 8
  %ehselector.slot = alloca i32, align 4
  store ptr %file, ptr %file.addr, align 8
  store ptr %printer, ptr %printer.addr, align 8
  store ptr %options, ptr %options.addr, align 8
  %0 = load ptr, ptr %file.addr, align 8
  %1 = load ptr, ptr %options.addr, align 8
  call void @_ZN6google8protobuf8compiler6csharp24ReflectionClassGeneratorC1EPKNS0_14FileDescriptorEPKNS2_7OptionsE(ptr noundef nonnull align 8 dereferenceable(120) %reflectionClassGenerator, ptr noundef %0, ptr noundef %1)
  %2 = load ptr, ptr %printer.addr, align 8
  invoke void @_ZN6google8protobuf8compiler6csharp24ReflectionClassGenerator8GenerateEPNS0_2io7PrinterE(ptr noundef nonnull align 8 dereferenceable(120) %reflectionClassGenerator, ptr noundef %2)
          to label %invoke.cont unwind label %lpad

invoke.cont:                                      ; preds = %entry
  call void @_ZN6google8protobuf8compiler6csharp24ReflectionClassGeneratorD1Ev(ptr noundef nonnull align 8 dereferenceable(120) %reflectionClassGenerator) #3
  ret void

lpad:                                             ; preds = %entry
  %3 = landingpad { ptr, i32 }
          cleanup
  %4 = extractvalue { ptr, i32 } %3, 0
  store ptr %4, ptr %exn.slot, align 8
  %5 = extractvalue { ptr, i32 } %3, 1
  store i32 %5, ptr %ehselector.slot, align 4
  call void @_ZN6google8protobuf8compiler6csharp24ReflectionClassGeneratorD1Ev(ptr noundef nonnull align 8 dereferenceable(120) %reflectionClassGenerator) #3
  br label %eh.resume

eh.resume:                                        ; preds = %lpad
  %exn = load ptr, ptr %exn.slot, align 8
  %sel = load i32, ptr %ehselector.slot, align 4
  %lpad.val = insertvalue { ptr, i32 } poison, ptr %exn, 0
  %lpad.val1 = insertvalue { ptr, i32 } %lpad.val, i32 %sel, 1
  resume { ptr, i32 } %lpad.val1
}