; Function Attrs: mustprogress uwtable
define hidden void @_ZN6google8protobuf8compiler6csharp12GenerateFileEPKNS0_14FileDescriptorEPNS0_2io7PrinterEPKNS2_7OptionsE(ptr noundef %file, ptr noundef %printer, ptr noundef %options) local_unnamed_addr #7 personality ptr @__gxx_personality_v0 {
entry:
  %reflectionClassGenerator = alloca %"class.google::protobuf::compiler::csharp::ReflectionClassGenerator", align 8
  call void @_ZN6google8protobuf8compiler6csharp24ReflectionClassGeneratorC1EPKNS0_14FileDescriptorEPKNS2_7OptionsE(ptr noundef nonnull align 8 dereferenceable(120) %reflectionClassGenerator, ptr noundef %file, ptr noundef %options)
  invoke void @_ZN6google8protobuf8compiler6csharp24ReflectionClassGenerator8GenerateEPNS0_2io7PrinterE(ptr noundef nonnull align 8 dereferenceable(120) %reflectionClassGenerator, ptr noundef %printer)
          to label %invoke.cont unwind label %lpad

invoke.cont:                                      ; preds = %entry
  call void @_ZN6google8protobuf8compiler6csharp24ReflectionClassGeneratorD1Ev(ptr noundef nonnull align 8 dereferenceable(120) %reflectionClassGenerator) #12
  ret void

lpad:                                             ; preds = %entry
  %0 = landingpad { ptr, i32 }
          cleanup
  call void @_ZN6google8protobuf8compiler6csharp24ReflectionClassGeneratorD1Ev(ptr noundef nonnull align 8 dereferenceable(120) %reflectionClassGenerator) #12
  resume { ptr, i32 } %0
}